(lp0
S'poi'
p1
aS'word_pca_0'
p2
aS'word_pca_1'
p3
aS'word_pca_2'
p4
aS'word_pca_3'
p5
aS'word_pca_4'
p6
aS'word_pca_5'
p7
aS'word_pca_6'
p8
aS'word_pca_7'
p9
aS'word_pca_8'
p10
aS'word_pca_9'
p11
aS'word_pca_10'
p12
aS'word_pca_11'
p13
aS'word_pca_12'
p14
aS'word_pca_13'
p15
aS'word_pca_14'
p16
aS'word_pca_15'
p17
aS'word_pca_16'
p18
aS'word_pca_17'
p19
aS'word_pca_18'
p20
aS'word_pca_19'
p21
aS'word_pca_20'
p22
aS'word_pca_21'
p23
aS'word_pca_22'
p24
aS'word_pca_23'
p25
aS'word_pca_24'
p26
aS'word_pca_25'
p27
aS'word_pca_26'
p28
aS'word_pca_27'
p29
aS'word_pca_28'
p30
aS'word_pca_29'
p31
aS'word_pca_30'
p32
aS'word_pca_31'
p33
aS'word_pca_32'
p34
aS'word_pca_33'
p35
aS'word_pca_34'
p36
aS'word_pca_35'
p37
aS'word_pca_36'
p38
aS'word_pca_37'
p39
aS'word_pca_38'
p40
aS'word_pca_39'
p41
aS'word_pca_40'
p42
aS'word_pca_41'
p43
aS'word_pca_42'
p44
aS'word_pca_43'
p45
aS'word_pca_44'
p46
a.